target datalayout = "e-m:e-p270:32:32-p271:32:32-p272:64:64-i64:64-i128:128-f80:128-n8:16:32:64-S128"
target triple = "x86_64-pc-linux-gnu"

%struct.conversation_filter_s = type { ptr, ptr, ptr, ptr, ptr }

@log_conv_filter_list = global ptr null, align 8

; Function Attrs: null_pointer_is_valid sspstrong uwtable
define internal void @do_register_conversation_filter(ptr noundef %0, ptr noundef %1, ptr noundef %2, ptr noundef %3, ptr noundef %4, ptr noundef %5) #0 {
  %7 = alloca ptr, align 8
  %8 = alloca ptr, align 8
  %9 = alloca ptr, align 8
  %10 = alloca ptr, align 8
  %11 = alloca ptr, align 8
  %12 = alloca ptr, align 8
  %13 = alloca ptr, align 8
  %14 = alloca i64, align 8
  %15 = alloca i64, align 8
  %16 = alloca ptr, align 8
  %17 = alloca ptr, align 8
  store ptr %0, ptr %7, align 8
  store ptr %1, ptr %8, align 8
  store ptr %2, ptr %9, align 8
  store ptr %3, ptr %10, align 8
  store ptr %4, ptr %11, align 8
  store ptr %5, ptr %12, align 8
  call void @llvm.lifetime.start.p0(i64 8, ptr %13) #8
  call void @llvm.lifetime.start.p0(i64 8, ptr %14) #8
  store i64 1, ptr %14, align 8
  call void @llvm.lifetime.start.p0(i64 8, ptr %15) #8
  store i64 40, ptr %15, align 8
  call void @llvm.lifetime.start.p0(i64 8, ptr %16) #8
  %18 = load i64, ptr %15, align 8
  %19 = icmp eq i64 %18, 1
  br i1 %19, label %20, label %23

20:                                               ; preds = %6
  %21 = load i64, ptr %14, align 8
  %22 = call noalias ptr @g_malloc(i64 noundef %21) #10
  store ptr %22, ptr %16, align 8
  br label %44

23:                                               ; preds = %6
  %24 = load i64, ptr %14, align 8
  %25 = call i1 @llvm.is.constant.i64(i64 %24)
  br i1 %25, label %26, label %39

26:                                               ; preds = %23
  %27 = load i64, ptr %15, align 8
  %28 = icmp eq i64 %27, 0
  br i1 %28, label %34, label %29

29:                                               ; preds = %26
  %30 = load i64, ptr %14, align 8
  %31 = load i64, ptr %15, align 8
  %32 = udiv i64 -1, %31
  %33 = icmp ule i64 %30, %32
  br i1 %33, label %34, label %39

34:                                               ; preds = %29, %26
  %35 = load i64, ptr %14, align 8
  %36 = load i64, ptr %15, align 8
  %37 = mul i64 %35, %36
  %38 = call noalias ptr @g_malloc(i64 noundef %37) #10
  store ptr %38, ptr %16, align 8
  br label %43

39:                                               ; preds = %29, %23
  %40 = load i64, ptr %14, align 8
  %41 = load i64, ptr %15, align 8
  %42 = call noalias ptr @g_malloc_n(i64 noundef %40, i64 noundef %41) #11
  store ptr %42, ptr %16, align 8
  br label %43

43:                                               ; preds = %39, %34
  br label %44

44:                                               ; preds = %43, %20
  %45 = load ptr, ptr %16, align 8
  store ptr %45, ptr %17, align 8
  call void @llvm.lifetime.end.p0(i64 8, ptr %16) #8
  call void @llvm.lifetime.end.p0(i64 8, ptr %15) #8
  call void @llvm.lifetime.end.p0(i64 8, ptr %14) #8
  %46 = load ptr, ptr %17, align 8
  store ptr %46, ptr %13, align 8
  %47 = load ptr, ptr %8, align 8
  %48 = load ptr, ptr %13, align 8
  %49 = getelementptr inbounds nuw %struct.conversation_filter_s, ptr %48, i32 0, i32 0
  store ptr %47, ptr %49, align 8
  %50 = load ptr, ptr %9, align 8
  %51 = load ptr, ptr %13, align 8
  %52 = getelementptr inbounds nuw %struct.conversation_filter_s, ptr %51, i32 0, i32 1
  store ptr %50, ptr %52, align 8
  %53 = load ptr, ptr %10, align 8
  %54 = load ptr, ptr %13, align 8
  %55 = getelementptr inbounds nuw %struct.conversation_filter_s, ptr %54, i32 0, i32 2
  store ptr %53, ptr %55, align 8
  %56 = load ptr, ptr %11, align 8
  %57 = load ptr, ptr %13, align 8
  %58 = getelementptr inbounds nuw %struct.conversation_filter_s, ptr %57, i32 0, i32 3
  store ptr %56, ptr %58, align 8
  %59 = load ptr, ptr %12, align 8
  %60 = load ptr, ptr %13, align 8
  %61 = getelementptr inbounds nuw %struct.conversation_filter_s, ptr %60, i32 0, i32 4
  store ptr %59, ptr %61, align 8
  %62 = load ptr, ptr %7, align 8
  %63 = load ptr, ptr %62, align 8
  %64 = load ptr, ptr %13, align 8
  %65 = call ptr @g_list_append(ptr noundef %63, ptr noundef %64)
  %66 = load ptr, ptr %7, align 8
  store ptr %65, ptr %66, align 8
  call void @llvm.lifetime.end.p0(i64 8, ptr %13) #8
  ret void
}

; Function Attrs: null_pointer_is_valid sspstrong uwtable
define void @register_log_conversation_filter(ptr noundef %0, ptr noundef %1, ptr noundef %2, ptr noundef %3, ptr noundef %4) #0 {
  %6 = alloca ptr, align 8
  %7 = alloca ptr, align 8
  %8 = alloca ptr, align 8
  %9 = alloca ptr, align 8
  %10 = alloca ptr, align 8
  store ptr %0, ptr %6, align 8
  store ptr %1, ptr %7, align 8
  store ptr %2, ptr %8, align 8
  store ptr %3, ptr %9, align 8
  store ptr %4, ptr %10, align 8
  %11 = load ptr, ptr %6, align 8
  %12 = load ptr, ptr %7, align 8
  %13 = load ptr, ptr %8, align 8
  %14 = load ptr, ptr %9, align 8
  %15 = load ptr, ptr %10, align 8
  call void @do_register_conversation_filter(ptr noundef @log_conv_filter_list, ptr noundef %11, ptr noundef %12, ptr noundef %13, ptr noundef %14, ptr noundef %15)
  ret void
}