; Function Attrs: null_pointer_is_valid sspstrong uwtable
define void @register_log_conversation_filter(ptr noundef %0, ptr noundef %1, ptr noundef %2, ptr noundef %3, ptr noundef %4) local_unnamed_addr #0 {
  %6 = tail call noalias dereferenceable_or_null(40) ptr @g_malloc(i64 noundef 40) #5
  store ptr %0, ptr %6, align 8
  %7 = getelementptr inbounds nuw i8, ptr %6, i64 8
  store ptr %1, ptr %7, align 8
  %8 = getelementptr inbounds nuw i8, ptr %6, i64 16
  store ptr %2, ptr %8, align 8
  %9 = getelementptr inbounds nuw i8, ptr %6, i64 24
  store ptr %3, ptr %9, align 8
  %10 = getelementptr inbounds nuw i8, ptr %6, i64 32
  store ptr %4, ptr %10, align 8
  %11 = load ptr, ptr @log_conv_filter_list, align 8
  %12 = tail call ptr @g_list_append(ptr noundef %11, ptr noundef %6)
  store ptr %12, ptr @log_conv_filter_list, align 8
  ret void
}